target datalayout = "e-m:e-p270:32:32-p271:32:32-p272:64:64-i64:64-i128:128-f80:128-n8:16:32:64-S128"
target triple = "x86_64-pc-linux-gnu"

%"class.std::__cxx11::basic_string" = type { %"struct.std::__cxx11::basic_string<char>::_Alloc_hider", i64, %union.anon }
%"struct.std::__cxx11::basic_string<char>::_Alloc_hider" = type { ptr }
%union.anon = type { i64, [8 x i8] }
%class.anon = type { i8 }

@.str.3 = private unnamed_addr constant [33 x i8] c"from != nullptr && to != nullptr\00", align 1
@.str.4 = private unnamed_addr constant [37 x i8] c"Replacement strings must not be NULL\00", align 1
@.str.5 = private unnamed_addr constant [128 x i8] c"generated/home/dtcxzyw/WorkSpace/Projects/compilers/llvm-opt-benchmark/bench/gromacs/gromacs/src/gromacs/utility/stringutil.cpp\00", align 1

; Function Attrs: mustprogress nounwind uwtable
define internal noundef zeroext i1 @_ZN3gmx12_GLOBAL__N_110isWordCharEc(i8 noundef signext %0) #0 {
  %2 = alloca i8, align 1
  store i8 %0, ptr %2, align 1
  %3 = load i8, ptr %2, align 1
  %4 = sext i8 %3 to i32
  %5 = call i32 @isalnum(i32 noundef %4) #12
  %6 = icmp ne i32 %5, 0
  br i1 %6, label %15, label %7

7:                                                ; preds = %1
  %8 = load i8, ptr %2, align 1
  %9 = sext i8 %8 to i32
  %10 = icmp eq i32 %9, 45
  br i1 %10, label %15, label %11

11:                                               ; preds = %7
  %12 = load i8, ptr %2, align 1
  %13 = sext i8 %12 to i32
  %14 = icmp eq i32 %13, 95
  br label %15

15:                                               ; preds = %11, %7, %1
  %16 = phi i1 [ true, %7 ], [ true, %1 ], [ %14, %11 ]
  ret i1 %16
}

; Function Attrs: mustprogress uwtable
define internal void @"_ZZN3gmx12_GLOBAL__N_115replaceInternalERKNSt7__cxx1112basic_stringIcSt11char_traitsIcESaIcEEEPKcSA_bENK3$_0clEv"(ptr noundef nonnull align 1 dereferenceable(1) %0) #3 align 2 {
  %2 = alloca ptr, align 8
  store ptr %0, ptr %2, align 8
  call void @_ZN3gmx8internal13assertHandlerEPKcS2_S2_S2_i(ptr noundef @.str.3, ptr noundef @.str.4, ptr noundef @"__PRETTY_FUNCTION__._ZZN3gmx12_GLOBAL__N_115replaceInternalERKNSt7__cxx1112basic_stringIcSt11char_traitsIcESaIcEEEPKcSA_bENK3$_0clEv", ptr noundef @.str.5, i32 noundef 254) #15
  unreachable
}

; Function Attrs: mustprogress uwtable
define internal void @_ZN3gmx12_GLOBAL__N_115replaceInternalERKNSt7__cxx1112basic_stringIcSt11char_traitsIcESaIcEEEPKcSA_b(ptr dead_on_unwind noalias writable sret(%"class.std::__cxx11::basic_string") align 8 %0, ptr noundef nonnull align 8 dereferenceable(32) %1, ptr noundef %2, ptr noundef %3, i1 noundef zeroext %4) #3 personality ptr @__gxx_personality_v0 {
  %6 = alloca ptr, align 8
  %7 = alloca ptr, align 8
  %8 = alloca ptr, align 8
  %9 = alloca ptr, align 8
  %10 = alloca i8, align 1
  %11 = alloca %class.anon, align 1
  %12 = alloca i64, align 8
  %13 = alloca i1, align 1
  %14 = alloca i64, align 8
  %15 = alloca i64, align 8
  %16 = alloca i64, align 8
  %17 = alloca ptr, align 8
  %18 = alloca i32, align 4
  store ptr %0, ptr %6, align 8
  store ptr %1, ptr %7, align 8
  store ptr %2, ptr %8, align 8
  store ptr %3, ptr %9, align 8
  %19 = zext i1 %4 to i8
  store i8 %19, ptr %10, align 1
  %20 = load ptr, ptr %8, align 8
  %21 = icmp ne ptr %20, null
  br i1 %21, label %22, label %26

22:                                               ; preds = %5
  %23 = load ptr, ptr %9, align 8
  %24 = icmp ne ptr %23, null
  br i1 %24, label %25, label %26

25:                                               ; preds = %22
  br label %27

26:                                               ; preds = %22, %5
  call void @"_ZZN3gmx12_GLOBAL__N_115replaceInternalERKNSt7__cxx1112basic_stringIcSt11char_traitsIcESaIcEEEPKcSA_bENK3$_0clEv"(ptr noundef nonnull align 1 dereferenceable(1) %11)
  br label %27

27:                                               ; preds = %26, %25
  %28 = load ptr, ptr %8, align 8
  %29 = call i64 @strlen(ptr noundef %28) #12
  store i64 %29, ptr %12, align 8
  store i1 false, ptr %13, align 1
  call void @_ZNSt7__cxx1112basic_stringIcSt11char_traitsIcESaIcEEC1Ev(ptr noundef nonnull align 8 dereferenceable(32) %0) #13
  store i64 0, ptr %14, align 8
  %30 = load ptr, ptr %7, align 8
  %31 = load ptr, ptr %8, align 8
  %32 = call noundef i64 @_ZNKSt7__cxx1112basic_stringIcSt11char_traitsIcESaIcEE4findEPKcm(ptr noundef nonnull align 8 dereferenceable(32) %30, ptr noundef %31, i64 noundef 0) #13
  store i64 %32, ptr %15, align 8
  br label %33

33:                                               ; preds = %88, %67, %27
  %34 = load i64, ptr %15, align 8
  %35 = load ptr, ptr %7, align 8
  %36 = call noundef i64 @_ZNKSt7__cxx1112basic_stringIcSt11char_traitsIcESaIcEE6lengthEv(ptr noundef nonnull align 8 dereferenceable(32) %35) #13
  %37 = icmp ult i64 %34, %36
  br i1 %37, label %38, label %94

38:                                               ; preds = %33
  %39 = load i64, ptr %15, align 8
  %40 = load i64, ptr %12, align 8
  %41 = add i64 %39, %40
  store i64 %41, ptr %16, align 8
  %42 = load i8, ptr %10, align 1
  %43 = trunc i8 %42 to i1
  br i1 %43, label %44, label %78

44:                                               ; preds = %38
  %45 = load i64, ptr %15, align 8
  %46 = icmp eq i64 %45, 0
  br i1 %46, label %55, label %47

47:                                               ; preds = %44
  %48 = load ptr, ptr %7, align 8
  %49 = load i64, ptr %15, align 8
  %50 = sub i64 %49, 1
  %51 = call noundef nonnull align 1 dereferenceable(1) ptr @_ZNKSt7__cxx1112basic_stringIcSt11char_traitsIcESaIcEEixEm(ptr noundef nonnull align 8 dereferenceable(32) %48, i64 noundef %50) #13
  %52 = load i8, ptr %51, align 1
  %53 = invoke noundef zeroext i1 @_ZN3gmx12_GLOBAL__N_110isWordCharEc(i8 noundef signext %52)
          to label %54 unwind label %73

54:                                               ; preds = %47
  br i1 %53, label %67, label %55

55:                                               ; preds = %54, %44
  %56 = load i64, ptr %16, align 8
  %57 = load ptr, ptr %7, align 8
  %58 = call noundef i64 @_ZNKSt7__cxx1112basic_stringIcSt11char_traitsIcESaIcEE6lengthEv(ptr noundef nonnull align 8 dereferenceable(32) %57) #13
  %59 = icmp eq i64 %56, %58
  br i1 %59, label %77, label %60

60:                                               ; preds = %55
  %61 = load ptr, ptr %7, align 8
  %62 = load i64, ptr %16, align 8
  %63 = call noundef nonnull align 1 dereferenceable(1) ptr @_ZNKSt7__cxx1112basic_stringIcSt11char_traitsIcESaIcEEixEm(ptr noundef nonnull align 8 dereferenceable(32) %61, i64 noundef %62) #13
  %64 = load i8, ptr %63, align 1
  %65 = invoke noundef zeroext i1 @_ZN3gmx12_GLOBAL__N_110isWordCharEc(i8 noundef signext %64)
          to label %66 unwind label %73

66:                                               ; preds = %60
  br i1 %65, label %67, label %77

67:                                               ; preds = %66, %54
  %68 = load ptr, ptr %7, align 8
  %69 = load ptr, ptr %8, align 8
  %70 = load i64, ptr %15, align 8
  %71 = add i64 %70, 1
  %72 = call noundef i64 @_ZNKSt7__cxx1112basic_stringIcSt11char_traitsIcESaIcEE4findEPKcm(ptr noundef nonnull align 8 dereferenceable(32) %68, ptr noundef %69, i64 noundef %71) #13
  store i64 %72, ptr %15, align 8
  br label %33, !llvm.loop !18

73:                                               ; preds = %94, %85, %78, %60, %47
  %74 = landingpad { ptr, i32 }
          cleanup
  %75 = extractvalue { ptr, i32 } %74, 0
  store ptr %75, ptr %17, align 8
  %76 = extractvalue { ptr, i32 } %74, 1
  store i32 %76, ptr %18, align 4
  call void @_ZNSt7__cxx1112basic_stringIcSt11char_traitsIcESaIcEED1Ev(ptr noundef nonnull align 8 dereferenceable(32) %0) #13
  br label %105

77:                                               ; preds = %66, %55
  br label %78

78:                                               ; preds = %77, %38
  %79 = load ptr, ptr %7, align 8
  %80 = load i64, ptr %14, align 8
  %81 = load i64, ptr %15, align 8
  %82 = load i64, ptr %14, align 8
  %83 = sub i64 %81, %82
  %84 = invoke noundef nonnull align 8 dereferenceable(32) ptr @_ZNSt7__cxx1112basic_stringIcSt11char_traitsIcESaIcEE6appendERKS4_mm(ptr noundef nonnull align 8 dereferenceable(32) %0, ptr noundef nonnull align 8 dereferenceable(32) %79, i64 noundef %80, i64 noundef %83)
          to label %85 unwind label %73

85:                                               ; preds = %78
  %86 = load ptr, ptr %9, align 8
  %87 = invoke noundef nonnull align 8 dereferenceable(32) ptr @_ZNSt7__cxx1112basic_stringIcSt11char_traitsIcESaIcEE6appendEPKc(ptr noundef nonnull align 8 dereferenceable(32) %0, ptr noundef %86)
          to label %88 unwind label %73

88:                                               ; preds = %85
  %89 = load i64, ptr %16, align 8
  store i64 %89, ptr %14, align 8
  %90 = load ptr, ptr %7, align 8
  %91 = load ptr, ptr %8, align 8
  %92 = load i64, ptr %14, align 8
  %93 = call noundef i64 @_ZNKSt7__cxx1112basic_stringIcSt11char_traitsIcESaIcEE4findEPKcm(ptr noundef nonnull align 8 dereferenceable(32) %90, ptr noundef %91, i64 noundef %92) #13
  store i64 %93, ptr %15, align 8
  br label %33, !llvm.loop !18

94:                                               ; preds = %33
  %95 = load ptr, ptr %7, align 8
  %96 = load i64, ptr %14, align 8
  %97 = load i64, ptr %15, align 8
  %98 = load i64, ptr %14, align 8
  %99 = sub i64 %97, %98
  %100 = invoke noundef nonnull align 8 dereferenceable(32) ptr @_ZNSt7__cxx1112basic_stringIcSt11char_traitsIcESaIcEE6appendERKS4_mm(ptr noundef nonnull align 8 dereferenceable(32) %0, ptr noundef nonnull align 8 dereferenceable(32) %95, i64 noundef %96, i64 noundef %99)
          to label %101 unwind label %73

101:                                              ; preds = %94
  store i1 true, ptr %13, align 1
  %102 = load i1, ptr %13, align 1
  br i1 %102, label %104, label %103

103:                                              ; preds = %101
  call void @_ZNSt7__cxx1112basic_stringIcSt11char_traitsIcESaIcEED1Ev(ptr noundef nonnull align 8 dereferenceable(32) %0) #13
  br label %104

104:                                              ; preds = %103, %101
  ret void

105:                                              ; preds = %73
  %106 = load ptr, ptr %17, align 8
  %107 = load i32, ptr %18, align 4
  %108 = insertvalue { ptr, i32 } poison, ptr %106, 0
  %109 = insertvalue { ptr, i32 } %108, i32 %107, 1
  resume { ptr, i32 } %109
}