; Function Attrs: mustprogress uwtable
define internal fastcc void @_ZN3gmx12_GLOBAL__N_115replaceInternalERKNSt7__cxx1112basic_stringIcSt11char_traitsIcESaIcEEEPKcSA_b(ptr dead_on_unwind noalias writable align 8 %0, ptr noundef nonnull align 8 dereferenceable(32) %1, ptr noundef %2, ptr noundef %3, i1 noundef zeroext %4) unnamed_addr #6 personality ptr @__gxx_personality_v0 {
  %6 = icmp ne ptr %2, null
  %7 = icmp ne ptr %3, null
  %or.cond = and i1 %6, %7
  br i1 %or.cond, label %9, label %8

8:                                                ; preds = %5
  tail call void @_ZN3gmx8internal13assertHandlerEPKcS2_S2_S2_i(ptr noundef nonnull @.str.3, ptr noundef nonnull @.str.4, ptr noundef nonnull @"__PRETTY_FUNCTION__._ZZN3gmx12_GLOBAL__N_115replaceInternalERKNSt7__cxx1112basic_stringIcSt11char_traitsIcESaIcEEEPKcSA_bENK3$_0clEv", ptr noundef nonnull @.str.5, i32 noundef 254) #24
  unreachable

9:                                                ; preds = %5
  %10 = tail call i64 @strlen(ptr noundef nonnull dereferenceable(1) %2) #21
  tail call void @_ZNSt7__cxx1112basic_stringIcSt11char_traitsIcESaIcEEC1Ev(ptr noundef nonnull align 8 dereferenceable(32) %0) #22
  %11 = tail call noundef i64 @_ZNKSt7__cxx1112basic_stringIcSt11char_traitsIcESaIcEE4findEPKcm(ptr noundef nonnull align 8 dereferenceable(32) %1, ptr noundef nonnull %2, i64 noundef 0) #22
  %12 = tail call noundef i64 @_ZNKSt7__cxx1112basic_stringIcSt11char_traitsIcESaIcEE6lengthEv(ptr noundef nonnull align 8 dereferenceable(32) %1) #22
  %13 = icmp ult i64 %11, %12
  br i1 %13, label %.lr.ph.lr.ph, label %.outer._crit_edge

.lr.ph.lr.ph:                                     ; preds = %9
  br i1 %4, label %.lr.ph.us, label %.lr.ph

.lr.ph.us:                                        ; preds = %.lr.ph.lr.ph, %.outer.us
  %.0.ph53.us = phi i64 [ %20, %.outer.us ], [ 0, %.lr.ph.lr.ph ]
  %.036.ph52.us = phi i64 [ %16, %.outer.us ], [ %11, %.lr.ph.lr.ph ]
  br label %19

14:                                               ; preds = %.split.us.us
  %15 = invoke noundef nonnull align 8 dereferenceable(32) ptr @_ZNSt7__cxx1112basic_stringIcSt11char_traitsIcESaIcEE6appendEPKc(ptr noundef nonnull align 8 dereferenceable(32) %0, ptr noundef nonnull %3)
          to label %.outer.us unwind label %.loopexit.split.us

.outer.us:                                        ; preds = %14
  %16 = tail call noundef i64 @_ZNKSt7__cxx1112basic_stringIcSt11char_traitsIcESaIcEE4findEPKcm(ptr noundef nonnull align 8 dereferenceable(32) %1, ptr noundef nonnull %2, i64 noundef %20) #22
  %17 = tail call noundef i64 @_ZNKSt7__cxx1112basic_stringIcSt11char_traitsIcESaIcEE6lengthEv(ptr noundef nonnull align 8 dereferenceable(32) %1) #22
  %18 = icmp ult i64 %16, %17
  br i1 %18, label %.lr.ph.us, label %.outer._crit_edge, !llvm.loop !18

19:                                               ; preds = %36, %.lr.ph.us
  %.03645.us.us = phi i64 [ %.036.ph52.us, %.lr.ph.us ], [ %38, %36 ]
  %20 = add i64 %.03645.us.us, %10
  %21 = icmp eq i64 %.03645.us.us, 0
  br i1 %21, label %28, label %22

22:                                               ; preds = %19
  %23 = add i64 %.03645.us.us, -1
  %24 = tail call noundef nonnull align 1 dereferenceable(1) ptr @_ZNKSt7__cxx1112basic_stringIcSt11char_traitsIcESaIcEEixEm(ptr noundef nonnull align 8 dereferenceable(32) %1, i64 noundef %23) #22
  %25 = load i8, ptr %24, align 1
  %26 = sext i8 %25 to i32
  %27 = tail call i32 @isalnum(i32 noundef %26) #21
  %.fr.us.us = freeze i32 %27
  %.not.us.us = icmp eq i32 %.fr.us.us, 0
  br i1 %.not.us.us, label %switch.early.test.us.us, label %36

switch.early.test.us.us:                          ; preds = %22
  switch i8 %25, label %28 [
    i8 95, label %36
    i8 45, label %36
  ]

28:                                               ; preds = %switch.early.test.us.us, %19
  %29 = tail call noundef i64 @_ZNKSt7__cxx1112basic_stringIcSt11char_traitsIcESaIcEE6lengthEv(ptr noundef nonnull align 8 dereferenceable(32) %1) #22
  %30 = icmp eq i64 %20, %29
  br i1 %30, label %.split.us.us, label %31

31:                                               ; preds = %28
  %32 = tail call noundef nonnull align 1 dereferenceable(1) ptr @_ZNKSt7__cxx1112basic_stringIcSt11char_traitsIcESaIcEEixEm(ptr noundef nonnull align 8 dereferenceable(32) %1, i64 noundef %20) #22
  %33 = load i8, ptr %32, align 1
  %34 = sext i8 %33 to i32
  %35 = tail call i32 @isalnum(i32 noundef %34) #21
  %.fr41.us.us = freeze i32 %35
  %.not42.us.us = icmp eq i32 %.fr41.us.us, 0
  br i1 %.not42.us.us, label %switch.early.test40.us.us, label %36

switch.early.test40.us.us:                        ; preds = %31
  switch i8 %33, label %.split.us.us [
    i8 95, label %36
    i8 45, label %36
  ]

36:                                               ; preds = %switch.early.test40.us.us, %switch.early.test40.us.us, %31, %switch.early.test.us.us, %switch.early.test.us.us, %22
  %37 = add nuw i64 %.03645.us.us, 1
  %38 = tail call noundef i64 @_ZNKSt7__cxx1112basic_stringIcSt11char_traitsIcESaIcEE4findEPKcm(ptr noundef nonnull align 8 dereferenceable(32) %1, ptr noundef nonnull %2, i64 noundef %37) #22
  %39 = tail call noundef i64 @_ZNKSt7__cxx1112basic_stringIcSt11char_traitsIcESaIcEE6lengthEv(ptr noundef nonnull align 8 dereferenceable(32) %1) #22
  %40 = icmp ult i64 %38, %39
  br i1 %40, label %19, label %.outer._crit_edge, !llvm.loop !18

.split.us.us:                                     ; preds = %switch.early.test40.us.us, %28
  %41 = sub i64 %.03645.us.us, %.0.ph53.us
  %42 = invoke noundef nonnull align 8 dereferenceable(32) ptr @_ZNSt7__cxx1112basic_stringIcSt11char_traitsIcESaIcEE6appendERKS4_mm(ptr noundef nonnull align 8 dereferenceable(32) %0, ptr noundef nonnull align 8 dereferenceable(32) %1, i64 noundef %.0.ph53.us, i64 noundef %41)
          to label %14 unwind label %.loopexit.split.us

.loopexit.split.us:                               ; preds = %.split.us.us, %14
  %lpad.loopexit.us = landingpad { ptr, i32 }
          cleanup
  br label %.loopexit

.lr.ph:                                           ; preds = %.lr.ph.lr.ph, %.outer
  %.0.ph53 = phi i64 [ %43, %.outer ], [ 0, %.lr.ph.lr.ph ]
  %.036.ph52 = phi i64 [ %48, %.outer ], [ %11, %.lr.ph.lr.ph ]
  %43 = add i64 %.036.ph52, %10
  %44 = sub i64 %.036.ph52, %.0.ph53
  %45 = invoke noundef nonnull align 8 dereferenceable(32) ptr @_ZNSt7__cxx1112basic_stringIcSt11char_traitsIcESaIcEE6appendERKS4_mm(ptr noundef nonnull align 8 dereferenceable(32) %0, ptr noundef nonnull align 8 dereferenceable(32) %1, i64 noundef %.0.ph53, i64 noundef %44)
          to label %46 unwind label %.loopexit.split

.loopexit.split:                                  ; preds = %.lr.ph, %46
  %lpad.loopexit = landingpad { ptr, i32 }
          cleanup
  br label %.loopexit

.loopexit.split-lp:                               ; preds = %.outer._crit_edge
  %lpad.loopexit.split-lp = landingpad { ptr, i32 }
          cleanup
  br label %.loopexit

.loopexit:                                        ; preds = %.loopexit.split, %.loopexit.split.us, %.loopexit.split-lp
  %lpad.phi = phi { ptr, i32 } [ %lpad.loopexit.split-lp, %.loopexit.split-lp ], [ %lpad.loopexit, %.loopexit.split ], [ %lpad.loopexit.us, %.loopexit.split.us ]
  tail call void @_ZNSt7__cxx1112basic_stringIcSt11char_traitsIcESaIcEED1Ev(ptr noundef nonnull align 8 dereferenceable(32) %0) #22
  resume { ptr, i32 } %lpad.phi

46:                                               ; preds = %.lr.ph
  %47 = invoke noundef nonnull align 8 dereferenceable(32) ptr @_ZNSt7__cxx1112basic_stringIcSt11char_traitsIcESaIcEE6appendEPKc(ptr noundef nonnull align 8 dereferenceable(32) %0, ptr noundef nonnull %3)
          to label %.outer unwind label %.loopexit.split

.outer:                                           ; preds = %46
  %48 = tail call noundef i64 @_ZNKSt7__cxx1112basic_stringIcSt11char_traitsIcESaIcEE4findEPKcm(ptr noundef nonnull align 8 dereferenceable(32) %1, ptr noundef nonnull %2, i64 noundef %43) #22
  %49 = tail call noundef i64 @_ZNKSt7__cxx1112basic_stringIcSt11char_traitsIcESaIcEE6lengthEv(ptr noundef nonnull align 8 dereferenceable(32) %1) #22
  %50 = icmp ult i64 %48, %49
  br i1 %50, label %.lr.ph, label %.outer._crit_edge, !llvm.loop !18

.outer._crit_edge:                                ; preds = %.outer, %.outer.us, %36, %9
  %.0.ph.lcssa44 = phi i64 [ 0, %9 ], [ %.0.ph53.us, %36 ], [ %20, %.outer.us ], [ %43, %.outer ]
  %.036.lcssa = phi i64 [ %11, %9 ], [ %38, %36 ], [ %16, %.outer.us ], [ %48, %.outer ]
  %51 = sub i64 %.036.lcssa, %.0.ph.lcssa44
  %52 = invoke noundef nonnull align 8 dereferenceable(32) ptr @_ZNSt7__cxx1112basic_stringIcSt11char_traitsIcESaIcEE6appendERKS4_mm(ptr noundef nonnull align 8 dereferenceable(32) %0, ptr noundef nonnull align 8 dereferenceable(32) %1, i64 noundef %.0.ph.lcssa44, i64 noundef %51)
          to label %53 unwind label %.loopexit.split-lp

53:                                               ; preds = %.outer._crit_edge
  ret void
}